; Function Attrs: nounwind uwtable
define dso_local range(i32 0, 2) i32 @dbAddRDBLoad(ptr noundef readonly captures(none) %0, ptr noundef %1, ptr noundef %2) local_unnamed_addr #0 {
  %4 = load ptr, ptr getelementptr inbounds nuw (i8, ptr @server, i64 1480), align 8, !tbaa !20
  %.not.i = icmp eq ptr %4, null
  br i1 %.not.i, label %13, label %5

5:                                                ; preds = %3
  %6 = getelementptr inbounds nuw i8, ptr %4, i64 232
  %7 = load i32, ptr %6, align 8, !tbaa !44
  %8 = icmp sgt i32 %7, -1
  br i1 %8, label %9, label %13

9:                                                ; preds = %5
  %10 = getelementptr inbounds nuw i8, ptr %4, i64 8
  %11 = load i64, ptr %10, align 8, !tbaa !55
  %12 = and i64 %11, 536870912
  %.not3.i = icmp eq i64 %12, 0
  br i1 %.not3.i, label %13, label %getKeySlot.exit

13:                                               ; preds = %9, %5, %3
  %14 = tail call i32 @calculateKeySlot(ptr noundef %1)
  br label %getKeySlot.exit

getKeySlot.exit:                                  ; preds = %9, %13
  %.0.i = phi i32 [ %14, %13 ], [ %7, %9 ]
  %15 = load ptr, ptr %0, align 8, !tbaa !6
  %16 = tail call ptr @kvstoreDictAddRaw(ptr noundef %15, i32 noundef %.0.i, ptr noundef %1, ptr noundef null) #20
  %17 = icmp eq ptr %16, null
  br i1 %17, label %38, label %18

18:                                               ; preds = %getKeySlot.exit
  %19 = load i32, ptr %2, align 8
  %20 = and i32 %19, 15
  %21 = tail call i64 @getObjectLength(ptr noundef nonnull %2) #20
  %22 = icmp samesign ugt i32 %20, 4
  br i1 %22, label %updateKeysizesHist.exit, label %23, !prof !5

23:                                               ; preds = %18
  %24 = load ptr, ptr %0, align 8, !tbaa !6
  %25 = tail call ptr @kvstoreGetDictMetadata(ptr noundef %24, i32 noundef %.0.i) #20
  %26 = load ptr, ptr %0, align 8, !tbaa !6
  %27 = tail call ptr @kvstoreGetMetadata(ptr noundef %26) #20
  %.not25.i = icmp eq i64 %21, 0
  br i1 %.not25.i, label %updateKeysizesHist.exit, label %28

28:                                               ; preds = %23
  %29 = tail call range(i64 0, 65) i64 @llvm.ctlz.i64(i64 range(i64 1, 0) %21, i1 true)
  %.pre28.i = xor i64 %29, 63
  %.not26.i = icmp eq ptr %25, null
  %.pre.i = zext nneg i32 %20 to i64
  br i1 %.not26.i, label %._crit_edge27.i, label %30

30:                                               ; preds = %28
  %31 = getelementptr inbounds nuw [5 x [48 x i64]], ptr %25, i64 0, i64 %.pre.i, i64 %.pre28.i
  %32 = load i64, ptr %31, align 8, !tbaa !17
  %33 = add i64 %32, 1
  store i64 %33, ptr %31, align 8, !tbaa !17
  br label %._crit_edge27.i

._crit_edge27.i:                                  ; preds = %30, %28
  %34 = getelementptr inbounds nuw [5 x [48 x i64]], ptr %27, i64 0, i64 %.pre.i, i64 %.pre28.i
  %35 = load i64, ptr %34, align 8, !tbaa !17
  %36 = add i64 %35, 1
  store i64 %36, ptr %34, align 8, !tbaa !17
  br label %updateKeysizesHist.exit

updateKeysizesHist.exit:                          ; preds = %18, %23, %._crit_edge27.i
  tail call void @initObjectLRUOrLFU(ptr noundef nonnull %2) #20
  %37 = load ptr, ptr %0, align 8, !tbaa !6
  tail call void @kvstoreDictSetVal(ptr noundef %37, i32 noundef %.0.i, ptr noundef nonnull %16, ptr noundef nonnull %2) #20
  br label %38

38:                                               ; preds = %getKeySlot.exit, %updateKeysizesHist.exit
  %.0 = phi i32 [ 1, %updateKeysizesHist.exit ], [ 0, %getKeySlot.exit ]
  ret i32 %.0
}